; ModuleID = '23/1088.c'
source_filename = "23/1088.c"
target datalayout = "e-m:e-p270:32:32-p271:32:32-p272:64:64-i64:64-f80:128-n8:16:32:64-S128"
target triple = "x86_64-pc-linux-gnu"

@.str = private unnamed_addr constant [3 x i8] c"%c\00", align 1
@.str.1 = private unnamed_addr constant [2 x i8] c" \00", align 1

; Function Attrs: noinline nounwind uwtable
define dso_local void @main() #0 {
  %1 = alloca [100 x i8], align 16
  %2 = alloca i32, align 4
  %3 = alloca i32, align 4
  %4 = alloca i32, align 4
  %5 = alloca i32, align 4
  %6 = alloca i32, align 4
  %7 = alloca i32, align 4
  store i32 0, i32* %5, align 4
  store i32 0, i32* %7, align 4
  %8 = getelementptr inbounds [100 x i8], [100 x i8]* %1, i64 0, i64 0
  %9 = call i32 (i8*, ...) bitcast (i32 (...)* @gets to i32 (i8*, ...)*)(i8* %8)
  %10 = getelementptr inbounds [100 x i8], [100 x i8]* %1, i64 0, i64 0
  %11 = call i64 @strlen(i8* %10) #3
  %12 = trunc i64 %11 to i32
  store i32 %12, i32* %6, align 4
  %13 = load i32, i32* %6, align 4
  %14 = sub nsw i32 %13, 1
  store i32 %14, i32* %2, align 4
  br label %15

15:                                               ; preds = %63, %0
  %16 = load i32, i32* %2, align 4
  %17 = icmp sge i32 %16, 0
  br i1 %17, label %18, label %66

18:                                               ; preds = %15
  store i32 1, i32* %4, align 4
  br label %19

19:                                               ; preds = %56, %18
  %20 = load i32, i32* %4, align 4
  %21 = load i32, i32* %2, align 4
  %22 = icmp sle i32 %20, %21
  br i1 %22, label %23, label %59

23:                                               ; preds = %19
  %24 = load i32, i32* %2, align 4
  %25 = load i32, i32* %4, align 4
  %26 = sub nsw i32 %24, %25
  %27 = sext i32 %26 to i64
  %28 = getelementptr inbounds [100 x i8], [100 x i8]* %1, i64 0, i64 %27
  %29 = load i8, i8* %28, align 1
  %30 = sext i8 %29 to i32
  %31 = icmp eq i32 %30, 32
  br i1 %31, label %32, label %55

32:                                               ; preds = %23
  %33 = load i32, i32* %2, align 4
  %34 = load i32, i32* %4, align 4
  %35 = sub nsw i32 %33, %34
  %36 = add nsw i32 %35, 1
  store i32 %36, i32* %3, align 4
  br label %37

37:                                               ; preds = %48, %32
  %38 = load i32, i32* %3, align 4
  %39 = load i32, i32* %2, align 4
  %40 = icmp sle i32 %38, %39
  br i1 %40, label %41, label %51

41:                                               ; preds = %37
  %42 = load i32, i32* %3, align 4
  %43 = sext i32 %42 to i64
  %44 = getelementptr inbounds [100 x i8], [100 x i8]* %1, i64 0, i64 %43
  %45 = load i8, i8* %44, align 1
  %46 = sext i8 %45 to i32
  %47 = call i32 (i8*, ...) @printf(i8* getelementptr inbounds ([3 x i8], [3 x i8]* @.str, i64 0, i64 0), i32 %46)
  br label %48

48:                                               ; preds = %41
  %49 = load i32, i32* %3, align 4
  %50 = add nsw i32 %49, 1
  store i32 %50, i32* %3, align 4
  br label %37

51:                                               ; preds = %37
  %52 = call i32 (i8*, ...) @printf(i8* getelementptr inbounds ([2 x i8], [2 x i8]* @.str.1, i64 0, i64 0))
  %53 = load i32, i32* %2, align 4
  store i32 %53, i32* %7, align 4
  %54 = load i32, i32* %4, align 4
  store i32 %54, i32* %5, align 4
  br label %59

55:                                               ; preds = %23
  br label %56

56:                                               ; preds = %55
  %57 = load i32, i32* %4, align 4
  %58 = add nsw i32 %57, 1
  store i32 %58, i32* %4, align 4
  br label %19

59:                                               ; preds = %51, %19
  %60 = load i32, i32* %2, align 4
  %61 = load i32, i32* %4, align 4
  %62 = sub nsw i32 %60, %61
  store i32 %62, i32* %2, align 4
  br label %63

63:                                               ; preds = %59
  %64 = load i32, i32* %2, align 4
  %65 = add nsw i32 %64, -1
  store i32 %65, i32* %2, align 4
  br label %15

66:                                               ; preds = %15
  %67 = load i32, i32* %7, align 4
  %68 = load i32, i32* %5, align 4
  %69 = sub nsw i32 %67, %68
  %70 = icmp sle i32 %69, 0
  br i1 %70, label %71, label %87

71:                                               ; preds = %66
  store i32 0, i32* %3, align 4
  br label %72

72:                                               ; preds = %83, %71
  %73 = load i32, i32* %3, align 4
  %74 = load i32, i32* %6, align 4
  %75 = icmp slt i32 %73, %74
  br i1 %75, label %76, label %86

76:                                               ; preds = %72
  %77 = load i32, i32* %3, align 4
  %78 = sext i32 %77 to i64
  %79 = getelementptr inbounds [100 x i8], [100 x i8]* %1, i64 0, i64 %78
  %80 = load i8, i8* %79, align 1
  %81 = sext i8 %80 to i32
  %82 = call i32 (i8*, ...) @printf(i8* getelementptr inbounds ([3 x i8], [3 x i8]* @.str, i64 0, i64 0), i32 %81)
  br label %83

83:                                               ; preds = %76
  %84 = load i32, i32* %3, align 4
  %85 = add nsw i32 %84, 1
  store i32 %85, i32* %3, align 4
  br label %72

86:                                               ; preds = %72
  br label %105

87:                                               ; preds = %66
  store i32 0, i32* %3, align 4
  br label %88

88:                                               ; preds = %101, %87
  %89 = load i32, i32* %3, align 4
  %90 = load i32, i32* %7, align 4
  %91 = load i32, i32* %5, align 4
  %92 = sub nsw i32 %90, %91
  %93 = icmp slt i32 %89, %92
  br i1 %93, label %94, label %104

94:                                               ; preds = %88
  %95 = load i32, i32* %3, align 4
  %96 = sext i32 %95 to i64
  %97 = getelementptr inbounds [100 x i8], [100 x i8]* %1, i64 0, i64 %96
  %98 = load i8, i8* %97, align 1
  %99 = sext i8 %98 to i32
  %100 = call i32 (i8*, ...) @printf(i8* getelementptr inbounds ([3 x i8], [3 x i8]* @.str, i64 0, i64 0), i32 %99)
  br label %101

101:                                              ; preds = %94
  %102 = load i32, i32* %3, align 4
  %103 = add nsw i32 %102, 1
  store i32 %103, i32* %3, align 4
  br label %88

104:                                              ; preds = %88
  br label %105

105:                                              ; preds = %104, %86
  ret void
}

declare dso_local i32 @gets(...) #1

; Function Attrs: nounwind readonly
declare dso_local i64 @strlen(i8*) #2

declare dso_local i32 @printf(i8*, ...) #1


!llvm.module.flags = !{!0}
!llvm.ident = !{!1}

!0 = !{i32 1, !"wchar_size", i32 4}
!1 = !{!"clang version 10.0.0-4ubuntu1 "}
